; ModuleID = '63/1411.c'
source_filename = "63/1411.c"
target datalayout = "e-m:e-p270:32:32-p271:32:32-p272:64:64-i64:64-f80:128-n8:16:32:64-S128"
target triple = "x86_64-pc-linux-gnu"

@.str = private unnamed_addr constant [6 x i8] c"%d %d\00", align 1
@.str.1 = private unnamed_addr constant [3 x i8] c"%d\00", align 1
@.str.2 = private unnamed_addr constant [4 x i8] c" %d\00", align 1
@.str.3 = private unnamed_addr constant [2 x i8] c"\0A\00", align 1

; Function Attrs: noinline nounwind uwtable
define dso_local i32 @main() #0 {
  %1 = alloca i32, align 4
  %2 = alloca i32, align 4
  %3 = alloca i32, align 4
  %4 = alloca i32, align 4
  %5 = alloca i32, align 4
  %6 = alloca [1000 x [1000 x i32]], align 16
  %7 = alloca [1000 x [1000 x i32]], align 16
  %8 = alloca [1000 x [1000 x i32]], align 16
  %9 = alloca i32, align 4
  %10 = alloca i32, align 4
  %11 = alloca i32, align 4
  %12 = alloca i32, align 4
  %13 = alloca i32, align 4
  %14 = alloca i32, align 4
  %15 = alloca i32, align 4
  store i32 0, i32* %1, align 4
  %16 = call i32 (i8*, ...) @__isoc99_scanf(i8* getelementptr inbounds ([6 x i8], [6 x i8]* @.str, i64 0, i64 0), i32* %2, i32* %3)
  store i32 1, i32* %9, align 4
  br label %17

17:                                               ; preds = %38, %0
  %18 = load i32, i32* %9, align 4
  %19 = load i32, i32* %2, align 4
  %20 = icmp sle i32 %18, %19
  br i1 %20, label %21, label %41

21:                                               ; preds = %17
  store i32 1, i32* %10, align 4
  br label %22

22:                                               ; preds = %34, %21
  %23 = load i32, i32* %10, align 4
  %24 = load i32, i32* %3, align 4
  %25 = icmp sle i32 %23, %24
  br i1 %25, label %26, label %37

26:                                               ; preds = %22
  %27 = load i32, i32* %9, align 4
  %28 = sext i32 %27 to i64
  %29 = getelementptr inbounds [1000 x [1000 x i32]], [1000 x [1000 x i32]]* %6, i64 0, i64 %28
  %30 = load i32, i32* %10, align 4
  %31 = sext i32 %30 to i64
  %32 = getelementptr inbounds [1000 x i32], [1000 x i32]* %29, i64 0, i64 %31
  %33 = call i32 (i8*, ...) @__isoc99_scanf(i8* getelementptr inbounds ([3 x i8], [3 x i8]* @.str.1, i64 0, i64 0), i32* %32)
  br label %34

34:                                               ; preds = %26
  %35 = load i32, i32* %10, align 4
  %36 = add nsw i32 %35, 1
  store i32 %36, i32* %10, align 4
  br label %22

37:                                               ; preds = %22
  br label %38

38:                                               ; preds = %37
  %39 = load i32, i32* %9, align 4
  %40 = add nsw i32 %39, 1
  store i32 %40, i32* %9, align 4
  br label %17

41:                                               ; preds = %17
  %42 = call i32 (i8*, ...) @__isoc99_scanf(i8* getelementptr inbounds ([6 x i8], [6 x i8]* @.str, i64 0, i64 0), i32* %4, i32* %5)
  store i32 1, i32* %11, align 4
  br label %43

43:                                               ; preds = %64, %41
  %44 = load i32, i32* %11, align 4
  %45 = load i32, i32* %4, align 4
  %46 = icmp sle i32 %44, %45
  br i1 %46, label %47, label %67

47:                                               ; preds = %43
  store i32 1, i32* %12, align 4
  br label %48

48:                                               ; preds = %60, %47
  %49 = load i32, i32* %12, align 4
  %50 = load i32, i32* %5, align 4
  %51 = icmp sle i32 %49, %50
  br i1 %51, label %52, label %63

52:                                               ; preds = %48
  %53 = load i32, i32* %11, align 4
  %54 = sext i32 %53 to i64
  %55 = getelementptr inbounds [1000 x [1000 x i32]], [1000 x [1000 x i32]]* %7, i64 0, i64 %54
  %56 = load i32, i32* %12, align 4
  %57 = sext i32 %56 to i64
  %58 = getelementptr inbounds [1000 x i32], [1000 x i32]* %55, i64 0, i64 %57
  %59 = call i32 (i8*, ...) @__isoc99_scanf(i8* getelementptr inbounds ([3 x i8], [3 x i8]* @.str.1, i64 0, i64 0), i32* %58)
  br label %60

60:                                               ; preds = %52
  %61 = load i32, i32* %12, align 4
  %62 = add nsw i32 %61, 1
  store i32 %62, i32* %12, align 4
  br label %48

63:                                               ; preds = %48
  br label %64

64:                                               ; preds = %63
  %65 = load i32, i32* %11, align 4
  %66 = add nsw i32 %65, 1
  store i32 %66, i32* %11, align 4
  br label %43

67:                                               ; preds = %43
  store i32 1, i32* %13, align 4
  br label %68

68:                                               ; preds = %150, %67
  %69 = load i32, i32* %13, align 4
  %70 = load i32, i32* %2, align 4
  %71 = icmp sle i32 %69, %70
  br i1 %71, label %72, label %153

72:                                               ; preds = %68
  store i32 1, i32* %14, align 4
  br label %73

73:                                               ; preds = %140, %72
  %74 = load i32, i32* %14, align 4
  %75 = load i32, i32* %5, align 4
  %76 = icmp sle i32 %74, %75
  br i1 %76, label %77, label %143

77:                                               ; preds = %73
  %78 = load i32, i32* %13, align 4
  %79 = sext i32 %78 to i64
  %80 = getelementptr inbounds [1000 x [1000 x i32]], [1000 x [1000 x i32]]* %8, i64 0, i64 %79
  %81 = load i32, i32* %14, align 4
  %82 = sext i32 %81 to i64
  %83 = getelementptr inbounds [1000 x i32], [1000 x i32]* %80, i64 0, i64 %82
  store i32 0, i32* %83, align 4
  store i32 1, i32* %15, align 4
  br label %84

84:                                               ; preds = %112, %77
  %85 = load i32, i32* %15, align 4
  %86 = load i32, i32* %3, align 4
  %87 = icmp sle i32 %85, %86
  br i1 %87, label %88, label %115

88:                                               ; preds = %84
  %89 = load i32, i32* %13, align 4
  %90 = sext i32 %89 to i64
  %91 = getelementptr inbounds [1000 x [1000 x i32]], [1000 x [1000 x i32]]* %6, i64 0, i64 %90
  %92 = load i32, i32* %15, align 4
  %93 = sext i32 %92 to i64
  %94 = getelementptr inbounds [1000 x i32], [1000 x i32]* %91, i64 0, i64 %93
  %95 = load i32, i32* %94, align 4
  %96 = load i32, i32* %15, align 4
  %97 = sext i32 %96 to i64
  %98 = getelementptr inbounds [1000 x [1000 x i32]], [1000 x [1000 x i32]]* %7, i64 0, i64 %97
  %99 = load i32, i32* %14, align 4
  %100 = sext i32 %99 to i64
  %101 = getelementptr inbounds [1000 x i32], [1000 x i32]* %98, i64 0, i64 %100
  %102 = load i32, i32* %101, align 4
  %103 = mul nsw i32 %95, %102
  %104 = load i32, i32* %13, align 4
  %105 = sext i32 %104 to i64
  %106 = getelementptr inbounds [1000 x [1000 x i32]], [1000 x [1000 x i32]]* %8, i64 0, i64 %105
  %107 = load i32, i32* %14, align 4
  %108 = sext i32 %107 to i64
  %109 = getelementptr inbounds [1000 x i32], [1000 x i32]* %106, i64 0, i64 %108
  %110 = load i32, i32* %109, align 4
  %111 = add nsw i32 %110, %103
  store i32 %111, i32* %109, align 4
  br label %112

112:                                              ; preds = %88
  %113 = load i32, i32* %15, align 4
  %114 = add nsw i32 %113, 1
  store i32 %114, i32* %15, align 4
  br label %84

115:                                              ; preds = %84
  %116 = load i32, i32* %14, align 4
  %117 = icmp eq i32 %116, 1
  br i1 %117, label %118, label %127

118:                                              ; preds = %115
  %119 = load i32, i32* %13, align 4
  %120 = sext i32 %119 to i64
  %121 = getelementptr inbounds [1000 x [1000 x i32]], [1000 x [1000 x i32]]* %8, i64 0, i64 %120
  %122 = load i32, i32* %14, align 4
  %123 = sext i32 %122 to i64
  %124 = getelementptr inbounds [1000 x i32], [1000 x i32]* %121, i64 0, i64 %123
  %125 = load i32, i32* %124, align 4
  %126 = call i32 (i8*, ...) @printf(i8* getelementptr inbounds ([3 x i8], [3 x i8]* @.str.1, i64 0, i64 0), i32 %125)
  br label %127

127:                                              ; preds = %118, %115
  %128 = load i32, i32* %14, align 4
  %129 = icmp sgt i32 %128, 1
  br i1 %129, label %130, label %139

130:                                              ; preds = %127
  %131 = load i32, i32* %13, align 4
  %132 = sext i32 %131 to i64
  %133 = getelementptr inbounds [1000 x [1000 x i32]], [1000 x [1000 x i32]]* %8, i64 0, i64 %132
  %134 = load i32, i32* %14, align 4
  %135 = sext i32 %134 to i64
  %136 = getelementptr inbounds [1000 x i32], [1000 x i32]* %133, i64 0, i64 %135
  %137 = load i32, i32* %136, align 4
  %138 = call i32 (i8*, ...) @printf(i8* getelementptr inbounds ([4 x i8], [4 x i8]* @.str.2, i64 0, i64 0), i32 %137)
  br label %139

139:                                              ; preds = %130, %127
  br label %140

140:                                              ; preds = %139
  %141 = load i32, i32* %14, align 4
  %142 = add nsw i32 %141, 1
  store i32 %142, i32* %14, align 4
  br label %73

143:                                              ; preds = %73
  %144 = load i32, i32* %13, align 4
  %145 = load i32, i32* %2, align 4
  %146 = icmp slt i32 %144, %145
  br i1 %146, label %147, label %149

147:                                              ; preds = %143
  %148 = call i32 (i8*, ...) @printf(i8* getelementptr inbounds ([2 x i8], [2 x i8]* @.str.3, i64 0, i64 0))
  br label %149

149:                                              ; preds = %147, %143
  br label %150

150:                                              ; preds = %149
  %151 = load i32, i32* %13, align 4
  %152 = add nsw i32 %151, 1
  store i32 %152, i32* %13, align 4
  br label %68

153:                                              ; preds = %68
  %154 = load i32, i32* %1, align 4
  ret i32 %154
}

declare dso_local i32 @__isoc99_scanf(i8*, ...) #1

declare dso_local i32 @printf(i8*, ...) #1


!llvm.module.flags = !{!0}
!llvm.ident = !{!1}

!0 = !{i32 1, !"wchar_size", i32 4}
!1 = !{!"clang version 10.0.0-4ubuntu1 "}
